target datalayout = "e-m:e-p270:32:32-p271:32:32-p272:64:64-i64:64-i128:128-f80:128-n8:16:32:64-S128"
target triple = "x86_64-pc-linux-gnu"

%struct.pmix_gds_globals_t = type { %struct.pmix_list_t, i8, i8, ptr }
%struct.pmix_list_t = type { %struct.pmix_object_t, %struct.pmix_list_item_t, i64 }
%struct.pmix_object_t = type { %union.pthread_mutex_t, ptr, i32, %struct.pmix_tma }
%union.pthread_mutex_t = type { %struct.__pthread_mutex_s }
%struct.__pthread_mutex_s = type { i32, i32, i32, i32, i32, i16, i16, %struct.__pthread_internal_list }
%struct.__pthread_internal_list = type { ptr, ptr }
%struct.pmix_tma = type { ptr, ptr, ptr, ptr, ptr, ptr, ptr, ptr }
%struct.pmix_list_item_t = type { %struct.pmix_object_t, ptr, ptr, i32 }
%struct.pmix_gds_base_active_module_t = type { %struct.pmix_list_item_t, i32, ptr, ptr }
%struct.pmix_gds_base_module_t = type { ptr, i8, ptr, ptr, ptr, ptr, ptr, ptr, ptr, ptr, ptr, ptr, ptr, ptr, ptr, ptr, ptr, ptr, ptr }

@pmix_gds_globals = external global %struct.pmix_gds_globals_t, align 8

; Function Attrs: nounwind uwtable
define i32 @pmix_gds_base_setup_fork(ptr noundef %0, ptr noundef %1) #0 {
  %3 = alloca i32, align 4
  %4 = alloca ptr, align 8
  %5 = alloca ptr, align 8
  %6 = alloca ptr, align 8
  %7 = alloca i32, align 4
  %8 = alloca i32, align 4
  store ptr %0, ptr %4, align 8, !tbaa !38
  store ptr %1, ptr %5, align 8, !tbaa !40
  call void @llvm.lifetime.start.p0(i64 8, ptr %6) #7
  call void @llvm.lifetime.start.p0(i64 4, ptr %7) #7
  %9 = load i8, ptr getelementptr inbounds nuw (%struct.pmix_gds_globals_t, ptr @pmix_gds_globals, i32 0, i32 1), align 8, !tbaa !3, !range !18, !noundef !19
  %10 = trunc i8 %9 to i1
  br i1 %10, label %12, label %11

11:                                               ; preds = %2
  store i32 -31, ptr %3, align 4
  store i32 1, ptr %8, align 4
  br label %47

12:                                               ; preds = %2
  %13 = load ptr, ptr getelementptr inbounds nuw (%struct.pmix_list_item_t, ptr getelementptr inbounds nuw (%struct.pmix_list_t, ptr @pmix_gds_globals, i32 0, i32 1), i32 0, i32 1), align 8, !tbaa !26
  store ptr %13, ptr %6, align 8, !tbaa !27
  br label %14

14:                                               ; preds = %42, %12
  %15 = load ptr, ptr %6, align 8, !tbaa !27
  %16 = icmp ne ptr %15, getelementptr inbounds nuw (%struct.pmix_list_t, ptr @pmix_gds_globals, i32 0, i32 1)
  br i1 %16, label %17, label %46

17:                                               ; preds = %14
  %18 = load ptr, ptr %6, align 8, !tbaa !27
  %19 = getelementptr inbounds nuw %struct.pmix_gds_base_active_module_t, ptr %18, i32 0, i32 2
  %20 = load ptr, ptr %19, align 8, !tbaa !29
  %21 = getelementptr inbounds nuw %struct.pmix_gds_base_module_t, ptr %20, i32 0, i32 11
  %22 = load ptr, ptr %21, align 8, !tbaa !42
  %23 = icmp eq ptr null, %22
  br i1 %23, label %24, label %25

24:                                               ; preds = %17
  br label %42

25:                                               ; preds = %17
  %26 = load ptr, ptr %6, align 8, !tbaa !27
  %27 = getelementptr inbounds nuw %struct.pmix_gds_base_active_module_t, ptr %26, i32 0, i32 2
  %28 = load ptr, ptr %27, align 8, !tbaa !29
  %29 = getelementptr inbounds nuw %struct.pmix_gds_base_module_t, ptr %28, i32 0, i32 11
  %30 = load ptr, ptr %29, align 8, !tbaa !42
  %31 = load ptr, ptr %4, align 8, !tbaa !38
  %32 = load ptr, ptr %5, align 8, !tbaa !40
  %33 = call i32 %30(ptr noundef %31, ptr noundef %32)
  store i32 %33, ptr %7, align 4, !tbaa !25
  %34 = load i32, ptr %7, align 4, !tbaa !25
  %35 = icmp ne i32 0, %34
  br i1 %35, label %36, label %41

36:                                               ; preds = %25
  %37 = load i32, ptr %7, align 4, !tbaa !25
  %38 = icmp ne i32 -64, %37
  br i1 %38, label %39, label %41

39:                                               ; preds = %36
  %40 = load i32, ptr %7, align 4, !tbaa !25
  store i32 %40, ptr %3, align 4
  store i32 1, ptr %8, align 4
  br label %47

41:                                               ; preds = %36, %25
  br label %42

42:                                               ; preds = %41, %24
  %43 = load ptr, ptr %6, align 8, !tbaa !27
  %44 = getelementptr inbounds nuw %struct.pmix_list_item_t, ptr %43, i32 0, i32 1
  %45 = load ptr, ptr %44, align 8, !tbaa !35
  store ptr %45, ptr %6, align 8, !tbaa !27
  br label %14, !llvm.loop !43

46:                                               ; preds = %14
  store i32 0, ptr %3, align 4
  store i32 1, ptr %8, align 4
  br label %47

47:                                               ; preds = %46, %39, %11
  call void @llvm.lifetime.end.p0(i64 4, ptr %7) #7
  call void @llvm.lifetime.end.p0(i64 8, ptr %6) #7
  %48 = load i32, ptr %3, align 4
  ret i32 %48
}