; Function Attrs: nounwind uwtable
define noundef i32 @pmix_gds_base_setup_fork(ptr noundef %0, ptr noundef %1) local_unnamed_addr #2 {
  %3 = load i8, ptr getelementptr inbounds nuw (i8, ptr @pmix_gds_globals, i64 272), align 8, !tbaa !3, !range !18, !noundef !19
  %4 = trunc nuw i8 %3 to i1
  br i1 %4, label %.preheader, label %.loopexit

.preheader:                                       ; preds = %2
  %.01013 = load ptr, ptr getelementptr inbounds nuw (i8, ptr @pmix_gds_globals, i64 240), align 8, !tbaa !28
  %.not14 = icmp eq ptr %.01013, getelementptr inbounds nuw (i8, ptr @pmix_gds_globals, i64 120)
  br i1 %.not14, label %.loopexit, label %.lr.ph

.lr.ph:                                           ; preds = %.preheader, %12
  %.01015 = phi ptr [ %.010, %12 ], [ %.01013, %.preheader ]
  %5 = getelementptr inbounds nuw i8, ptr %.01015, i64 152
  %6 = load ptr, ptr %5, align 8, !tbaa !21
  %7 = getelementptr inbounds nuw i8, ptr %6, i64 88
  %8 = load ptr, ptr %7, align 8, !tbaa !31
  %9 = icmp eq ptr %8, null
  br i1 %9, label %12, label %10

10:                                               ; preds = %.lr.ph
  %11 = tail call i32 %8(ptr noundef %0, ptr noundef %1) #8
  switch i32 %11, label %.loopexit [
    i32 -64, label %12
    i32 0, label %12
  ]

12:                                               ; preds = %10, %10, %.lr.ph
  %13 = getelementptr inbounds nuw i8, ptr %.01015, i64 120
  %.010 = load ptr, ptr %13, align 8, !tbaa !28
  %.not = icmp eq ptr %.010, getelementptr inbounds nuw (i8, ptr @pmix_gds_globals, i64 120)
  br i1 %.not, label %.loopexit, label %.lr.ph, !llvm.loop !32

.loopexit:                                        ; preds = %10, %12, %.preheader, %2
  %.0 = phi i32 [ -31, %2 ], [ 0, %.preheader ], [ %11, %10 ], [ 0, %12 ]
  ret i32 %.0
}